target datalayout = "e-m:e-p270:32:32-p271:32:32-p272:64:64-i64:64-i128:128-f80:128-n8:16:32:64-S128"
target triple = "x86_64-pc-linux-gnu"

%"class.std::filesystem::__cxx11::path" = type { %"class.std::__cxx11::basic_string", %"struct.std::filesystem::__cxx11::path::_List" }
%"class.std::__cxx11::basic_string" = type { %"struct.std::__cxx11::basic_string<char>::_Alloc_hider", i64, %union.anon }
%"struct.std::__cxx11::basic_string<char>::_Alloc_hider" = type { ptr }
%union.anon = type { i64, [8 x i8] }
%"struct.std::filesystem::__cxx11::path::_List" = type { %"class.std::unique_ptr" }
%"class.std::unique_ptr" = type { %"struct.std::__uniq_ptr_data" }
%"struct.std::__uniq_ptr_data" = type { %"class.std::__uniq_ptr_impl" }
%"class.std::__uniq_ptr_impl" = type { %"class.std::tuple" }
%"class.std::tuple" = type { %"struct.std::_Tuple_impl" }
%"struct.std::_Tuple_impl" = type { %"struct.std::_Head_base.1" }
%"struct.std::_Head_base.1" = type { ptr }

@.str = private unnamed_addr constant [142 x i8] c"generated/home/dtcxzyw/WorkSpace/Projects/compilers/llvm-opt-benchmark/bench/gromacs/gromacs/src/gromacs/correlationfunctions/polynomials.cpp\00", align 1
@.str.1 = private unnamed_addr constant [51 x i8] c"Legendre polynomials of order %u are not supported\00", align 1

; Function Attrs: mustprogress uwtable
define noundef float @_Z9LegendrePfj(float noundef %0, i32 noundef %1) #0 personality ptr @__gxx_personality_v0 {
  %3 = alloca float, align 4
  %4 = alloca i32, align 4
  %5 = alloca float, align 4
  %6 = alloca float, align 4
  %7 = alloca float, align 4
  %8 = alloca %"class.std::filesystem::__cxx11::path", align 8
  %9 = alloca ptr, align 8
  %10 = alloca i32, align 4
  store float %0, ptr %3, align 4
  store i32 %1, ptr %4, align 4
  store float 0.000000e+00, ptr %5, align 4
  %11 = load i32, ptr %4, align 4
  switch i32 %11, label %67 [
    i32 0, label %12
    i32 1, label %13
    i32 2, label %15
    i32 3, label %23
    i32 4, label %37
    i32 5, label %50
  ]

12:                                               ; preds = %2
  store float 1.000000e+00, ptr %5, align 4
  br label %74

13:                                               ; preds = %2
  %14 = load float, ptr %3, align 4
  store float %14, ptr %5, align 4
  br label %74

15:                                               ; preds = %2
  %16 = load float, ptr %3, align 4
  %17 = load float, ptr %3, align 4
  %18 = fmul float %16, %17
  store float %18, ptr %6, align 4
  %19 = load float, ptr %6, align 4
  %20 = fpext float %19 to double
  %21 = call double @llvm.fmuladd.f64(double 1.500000e+00, double %20, double -5.000000e-01)
  %22 = fptrunc double %21 to float
  store float %22, ptr %5, align 4
  br label %74

23:                                               ; preds = %2
  %24 = load float, ptr %3, align 4
  %25 = load float, ptr %3, align 4
  %26 = fmul float %24, %25
  store float %26, ptr %6, align 4
  %27 = load float, ptr %6, align 4
  %28 = fmul float 5.000000e+00, %27
  %29 = load float, ptr %3, align 4
  %30 = load float, ptr %3, align 4
  %31 = fmul float 3.000000e+00, %30
  %32 = fneg float %31
  %33 = call float @llvm.fmuladd.f32(float %28, float %29, float %32)
  %34 = fpext float %33 to double
  %35 = fmul double %34, 5.000000e-01
  %36 = fptrunc double %35 to float
  store float %36, ptr %5, align 4
  br label %74

37:                                               ; preds = %2
  %38 = load float, ptr %3, align 4
  %39 = load float, ptr %3, align 4
  %40 = fmul float %38, %39
  store float %40, ptr %6, align 4
  %41 = load float, ptr %6, align 4
  %42 = fmul float 3.500000e+01, %41
  %43 = load float, ptr %6, align 4
  %44 = load float, ptr %6, align 4
  %45 = fmul float 3.000000e+01, %44
  %46 = fneg float %45
  %47 = call float @llvm.fmuladd.f32(float %42, float %43, float %46)
  %48 = fadd float %47, 3.000000e+00
  %49 = fdiv float %48, 8.000000e+00
  store float %49, ptr %5, align 4
  br label %74

50:                                               ; preds = %2
  %51 = load float, ptr %3, align 4
  %52 = load float, ptr %3, align 4
  %53 = fmul float %51, %52
  store float %53, ptr %6, align 4
  %54 = load float, ptr %6, align 4
  %55 = load float, ptr %3, align 4
  %56 = fmul float %54, %55
  store float %56, ptr %7, align 4
  %57 = load float, ptr %7, align 4
  %58 = fmul float 6.300000e+01, %57
  %59 = load float, ptr %6, align 4
  %60 = load float, ptr %7, align 4
  %61 = fmul float 7.000000e+01, %60
  %62 = fneg float %61
  %63 = call float @llvm.fmuladd.f32(float %58, float %59, float %62)
  %64 = load float, ptr %3, align 4
  %65 = call float @llvm.fmuladd.f32(float 1.500000e+01, float %64, float %63)
  %66 = fdiv float %65, 8.000000e+00
  store float %66, ptr %5, align 4
  br label %74

67:                                               ; preds = %2
  call void @_ZNSt10filesystem7__cxx114pathC2IA142_cS1_EERKT_NS1_6formatE(ptr noundef nonnull align 8 dereferenceable(40) %8, ptr noundef nonnull align 1 dereferenceable(142) @.str, i8 noundef zeroext 2)
  %68 = load i32, ptr %4, align 4
  invoke void (i32, ptr, i32, ptr, ...) @_Z9gmx_fataliRKNSt10filesystem7__cxx114pathEiPKcz(i32 noundef 0, ptr noundef nonnull align 8 dereferenceable(40) %8, i32 noundef 74, ptr noundef @.str.1, i32 noundef %68) #8
          to label %69 unwind label %70

69:                                               ; preds = %67
  unreachable

70:                                               ; preds = %67
  %71 = landingpad { ptr, i32 }
          cleanup
  %72 = extractvalue { ptr, i32 } %71, 0
  store ptr %72, ptr %9, align 8
  %73 = extractvalue { ptr, i32 } %71, 1
  store i32 %73, ptr %10, align 4
  call void @_ZNSt10filesystem7__cxx114pathD2Ev(ptr noundef nonnull align 8 dereferenceable(40) %8) #9
  br label %76

74:                                               ; preds = %50, %37, %23, %15, %13, %12
  %75 = load float, ptr %5, align 4
  ret float %75

76:                                               ; preds = %70
  %77 = load ptr, ptr %9, align 8
  %78 = load i32, ptr %10, align 4
  %79 = insertvalue { ptr, i32 } poison, ptr %77, 0
  %80 = insertvalue { ptr, i32 } %79, i32 %78, 1
  resume { ptr, i32 } %80
}