; Function Attrs: mustprogress uwtable
define noundef float @_Z9LegendrePfj(float noundef %0, i32 noundef %1) local_unnamed_addr #0 personality ptr @__gxx_personality_v0 {
  %3 = alloca %"class.std::filesystem::__cxx11::path", align 8
  switch i32 %1, label %31 [
    i32 0, label %35
    i32 1, label %4
    i32 2, label %5
    i32 3, label %10
    i32 4, label %16
    i32 5, label %23
  ]

4:                                                ; preds = %2
  br label %35

5:                                                ; preds = %2
  %6 = fmul float %0, %0
  %7 = fpext float %6 to double
  %8 = tail call double @llvm.fmuladd.f64(double %7, double 1.500000e+00, double -5.000000e-01)
  %9 = fptrunc double %8 to float
  br label %35

10:                                               ; preds = %2
  %11 = fmul float %0, %0
  %12 = fmul float %11, 5.000000e+00
  %13 = fmul float %0, -3.000000e+00
  %14 = tail call float @llvm.fmuladd.f32(float %12, float %0, float %13)
  %15 = fmul float %14, 5.000000e-01
  br label %35

16:                                               ; preds = %2
  %17 = fmul float %0, %0
  %18 = fmul float %17, 3.500000e+01
  %19 = fmul float %17, -3.000000e+01
  %20 = tail call float @llvm.fmuladd.f32(float %18, float %17, float %19)
  %21 = fadd float %20, 3.000000e+00
  %22 = fmul float %21, 1.250000e-01
  br label %35

23:                                               ; preds = %2
  %24 = fmul float %0, %0
  %25 = fmul float %24, %0
  %26 = fmul float %25, 6.300000e+01
  %27 = fmul float %25, -7.000000e+01
  %28 = tail call float @llvm.fmuladd.f32(float %26, float %24, float %27)
  %29 = tail call float @llvm.fmuladd.f32(float %0, float 1.500000e+01, float %28)
  %30 = fmul float %29, 1.250000e-01
  br label %35

31:                                               ; preds = %2
  call void @_ZNSt10filesystem7__cxx114pathC2IA142_cS1_EERKT_NS1_6formatE(ptr noundef nonnull align 8 dereferenceable(40) %3, ptr noundef nonnull align 1 dereferenceable(142) @.str, i8 noundef zeroext 2)
  invoke void (i32, ptr, i32, ptr, ...) @_Z9gmx_fataliRKNSt10filesystem7__cxx114pathEiPKcz(i32 noundef 0, ptr noundef nonnull align 8 dereferenceable(40) %3, i32 noundef 74, ptr noundef nonnull @.str.1, i32 noundef %1) #8
          to label %32 unwind label %33

32:                                               ; preds = %31
  unreachable

33:                                               ; preds = %31
  %34 = landingpad { ptr, i32 }
          cleanup
  call void @_ZNSt10filesystem7__cxx114pathD2Ev(ptr noundef nonnull align 8 dereferenceable(40) %3) #9
  resume { ptr, i32 } %34

35:                                               ; preds = %2, %23, %16, %10, %5, %4
  %.0 = phi float [ %30, %23 ], [ %22, %16 ], [ %15, %10 ], [ %9, %5 ], [ %0, %4 ], [ 1.000000e+00, %2 ]
  ret float %.0
}